; ModuleID = '28/1674.c'
source_filename = "28/1674.c"
target datalayout = "e-m:e-p270:32:32-p271:32:32-p272:64:64-i64:64-f80:128-n8:16:32:64-S128"
target triple = "x86_64-pc-linux-gnu"

@.str = private unnamed_addr constant [4 x i8] c"%d,\00", align 1
@.str.1 = private unnamed_addr constant [3 x i8] c"%d\00", align 1

; Function Attrs: noinline nounwind uwtable
define dso_local i32 @main() #0 {
  %1 = alloca i32, align 4
  %2 = alloca [3000 x i8], align 16
  %3 = alloca [300 x [30 x i8]], align 16
  %4 = alloca i32, align 4
  %5 = alloca i32, align 4
  %6 = alloca i32, align 4
  %7 = alloca i32, align 4
  %8 = alloca i32, align 4
  %9 = alloca [300 x i32], align 16
  store i32 0, i32* %1, align 4
  store i32 0, i32* %7, align 4
  store i32 0, i32* %8, align 4
  %10 = getelementptr inbounds [3000 x i8], [3000 x i8]* %2, i64 0, i64 0
  %11 = call i32 (i8*, ...) bitcast (i32 (...)* @gets to i32 (i8*, ...)*)(i8* %10)
  %12 = getelementptr inbounds [3000 x i8], [3000 x i8]* %2, i64 0, i64 0
  %13 = call i64 @strlen(i8* %12) #3
  %14 = trunc i64 %13 to i32
  store i32 %14, i32* %6, align 4
  store i32 0, i32* %4, align 4
  br label %15

15:                                               ; preds = %67, %0
  %16 = load i32, i32* %4, align 4
  %17 = load i32, i32* %6, align 4
  %18 = icmp slt i32 %16, %17
  br i1 %18, label %19, label %70

19:                                               ; preds = %15
  %20 = load i32, i32* %4, align 4
  %21 = sext i32 %20 to i64
  %22 = getelementptr inbounds [3000 x i8], [3000 x i8]* %2, i64 0, i64 %21
  %23 = load i8, i8* %22, align 1
  %24 = sext i8 %23 to i32
  %25 = icmp ne i32 %24, 32
  br i1 %25, label %26, label %39

26:                                               ; preds = %19
  %27 = load i32, i32* %4, align 4
  %28 = sext i32 %27 to i64
  %29 = getelementptr inbounds [3000 x i8], [3000 x i8]* %2, i64 0, i64 %28
  %30 = load i8, i8* %29, align 1
  %31 = load i32, i32* %7, align 4
  %32 = sext i32 %31 to i64
  %33 = getelementptr inbounds [300 x [30 x i8]], [300 x [30 x i8]]* %3, i64 0, i64 %32
  %34 = load i32, i32* %8, align 4
  %35 = sext i32 %34 to i64
  %36 = getelementptr inbounds [30 x i8], [30 x i8]* %33, i64 0, i64 %35
  store i8 %30, i8* %36, align 1
  %37 = load i32, i32* %8, align 4
  %38 = add nsw i32 %37, 1
  store i32 %38, i32* %8, align 4
  br label %66

39:                                               ; preds = %19
  %40 = load i32, i32* %4, align 4
  %41 = sub nsw i32 %40, 1
  %42 = sext i32 %41 to i64
  %43 = getelementptr inbounds [3000 x i8], [3000 x i8]* %2, i64 0, i64 %42
  %44 = load i8, i8* %43, align 1
  %45 = sext i8 %44 to i32
  %46 = icmp ne i32 %45, 32
  br i1 %46, label %47, label %54

47:                                               ; preds = %39
  %48 = load i32, i32* %7, align 4
  %49 = sext i32 %48 to i64
  %50 = getelementptr inbounds [300 x [30 x i8]], [300 x [30 x i8]]* %3, i64 0, i64 %49
  %51 = load i32, i32* %8, align 4
  %52 = sext i32 %51 to i64
  %53 = getelementptr inbounds [30 x i8], [30 x i8]* %50, i64 0, i64 %52
  store i8 0, i8* %53, align 1
  store i32 0, i32* %8, align 4
  br label %54

54:                                               ; preds = %47, %39
  %55 = load i32, i32* %4, align 4
  %56 = add nsw i32 %55, 1
  %57 = sext i32 %56 to i64
  %58 = getelementptr inbounds [3000 x i8], [3000 x i8]* %2, i64 0, i64 %57
  %59 = load i8, i8* %58, align 1
  %60 = sext i8 %59 to i32
  %61 = icmp ne i32 %60, 32
  br i1 %61, label %62, label %65

62:                                               ; preds = %54
  %63 = load i32, i32* %7, align 4
  %64 = add nsw i32 %63, 1
  store i32 %64, i32* %7, align 4
  br label %65

65:                                               ; preds = %62, %54
  br label %66

66:                                               ; preds = %65, %26
  br label %67

67:                                               ; preds = %66
  %68 = load i32, i32* %4, align 4
  %69 = add nsw i32 %68, 1
  store i32 %69, i32* %4, align 4
  br label %15

70:                                               ; preds = %15
  %71 = load i32, i32* %7, align 4
  %72 = sext i32 %71 to i64
  %73 = getelementptr inbounds [300 x [30 x i8]], [300 x [30 x i8]]* %3, i64 0, i64 %72
  %74 = load i32, i32* %8, align 4
  %75 = sext i32 %74 to i64
  %76 = getelementptr inbounds [30 x i8], [30 x i8]* %73, i64 0, i64 %75
  store i8 0, i8* %76, align 1
  store i32 0, i32* %5, align 4
  br label %77

77:                                               ; preds = %96, %70
  %78 = load i32, i32* %5, align 4
  %79 = load i32, i32* %7, align 4
  %80 = icmp slt i32 %78, %79
  br i1 %80, label %81, label %99

81:                                               ; preds = %77
  %82 = load i32, i32* %5, align 4
  %83 = sext i32 %82 to i64
  %84 = getelementptr inbounds [300 x [30 x i8]], [300 x [30 x i8]]* %3, i64 0, i64 %83
  %85 = getelementptr inbounds [30 x i8], [30 x i8]* %84, i64 0, i64 0
  %86 = call i64 @strlen(i8* %85) #3
  %87 = trunc i64 %86 to i32
  %88 = load i32, i32* %5, align 4
  %89 = sext i32 %88 to i64
  %90 = getelementptr inbounds [300 x i32], [300 x i32]* %9, i64 0, i64 %89
  store i32 %87, i32* %90, align 4
  %91 = load i32, i32* %5, align 4
  %92 = sext i32 %91 to i64
  %93 = getelementptr inbounds [300 x i32], [300 x i32]* %9, i64 0, i64 %92
  %94 = load i32, i32* %93, align 4
  %95 = call i32 (i8*, ...) @printf(i8* getelementptr inbounds ([4 x i8], [4 x i8]* @.str, i64 0, i64 0), i32 %94)
  br label %96

96:                                               ; preds = %81
  %97 = load i32, i32* %5, align 4
  %98 = add nsw i32 %97, 1
  store i32 %98, i32* %5, align 4
  br label %77

99:                                               ; preds = %77
  %100 = load i32, i32* %7, align 4
  %101 = sext i32 %100 to i64
  %102 = getelementptr inbounds [300 x [30 x i8]], [300 x [30 x i8]]* %3, i64 0, i64 %101
  %103 = getelementptr inbounds [30 x i8], [30 x i8]* %102, i64 0, i64 0
  %104 = call i64 @strlen(i8* %103) #3
  %105 = trunc i64 %104 to i32
  %106 = load i32, i32* %7, align 4
  %107 = sext i32 %106 to i64
  %108 = getelementptr inbounds [300 x i32], [300 x i32]* %9, i64 0, i64 %107
  store i32 %105, i32* %108, align 4
  %109 = load i32, i32* %7, align 4
  %110 = sext i32 %109 to i64
  %111 = getelementptr inbounds [300 x i32], [300 x i32]* %9, i64 0, i64 %110
  %112 = load i32, i32* %111, align 4
  %113 = call i32 (i8*, ...) @printf(i8* getelementptr inbounds ([3 x i8], [3 x i8]* @.str.1, i64 0, i64 0), i32 %112)
  ret i32 0
}

declare dso_local i32 @gets(...) #1

; Function Attrs: nounwind readonly
declare dso_local i64 @strlen(i8*) #2

declare dso_local i32 @printf(i8*, ...) #1


!llvm.module.flags = !{!0}
!llvm.ident = !{!1}

!0 = !{i32 1, !"wchar_size", i32 4}
!1 = !{!"clang version 10.0.0-4ubuntu1 "}
