; ModuleID = 'source-C-CXX/27/1674.c'
source_filename = "source-C-CXX/27/1674.c"
target datalayout = "e-m:e-p270:32:32-p271:32:32-p272:64:64-i64:64-f80:128-n8:16:32:64-S128"
target triple = "x86_64-pc-linux-gnu"

@.str = private unnamed_addr constant [4 x i8] c"%d,\00", align 1
@.str.1 = private unnamed_addr constant [3 x i8] c"%d\00", align 1

; Function Attrs: nounwind sspstrong uwtable
define dso_local i32 @main() local_unnamed_addr #0 {
  %1 = alloca [3000 x i8], align 16
  %2 = alloca [300 x [30 x i8]], align 16
  %3 = getelementptr inbounds [3000 x i8], [3000 x i8]* %1, i64 0, i64 0
  call void @llvm.lifetime.start.p0i8(i64 3000, i8* nonnull %3) #5
  %4 = getelementptr inbounds [300 x [30 x i8]], [300 x [30 x i8]]* %2, i64 0, i64 0, i64 0
  call void @llvm.lifetime.start.p0i8(i64 9000, i8* nonnull %4) #5
  %5 = call i32 (i8*, ...) bitcast (i32 (...)* @gets to i32 (i8*, ...)*)(i8* nonnull %3) #5
  %6 = call i64 @strlen(i8* noundef nonnull %3) #6
  %7 = trunc i64 %6 to i32
  %8 = icmp sgt i32 %7, 0
  br i1 %8, label %11, label %9

9:                                                ; preds = %0
  %10 = getelementptr inbounds [300 x [30 x i8]], [300 x [30 x i8]]* %2, i64 0, i64 0, i64 0
  store i8 0, i8* %10, align 16, !tbaa !5
  br label %63

11:                                               ; preds = %0
  %12 = and i64 %6, 4294967295
  br label %13

13:                                               ; preds = %11, %43
  %14 = phi i64 [ 0, %11 ], [ %44, %43 ]
  %15 = phi i32 [ 0, %11 ], [ %46, %43 ]
  %16 = phi i32 [ 0, %11 ], [ %45, %43 ]
  %17 = getelementptr inbounds [3000 x i8], [3000 x i8]* %1, i64 0, i64 %14
  %18 = load i8, i8* %17, align 1, !tbaa !5
  %19 = icmp eq i8 %18, 32
  br i1 %19, label %26, label %20

20:                                               ; preds = %13
  %21 = sext i32 %16 to i64
  %22 = sext i32 %15 to i64
  %23 = getelementptr inbounds [300 x [30 x i8]], [300 x [30 x i8]]* %2, i64 0, i64 %21, i64 %22
  store i8 %18, i8* %23, align 1, !tbaa !5
  %24 = add nsw i32 %15, 1
  %25 = add nuw nsw i64 %14, 1
  br label %43

26:                                               ; preds = %13
  %27 = add nsw i64 %14, -1
  %28 = getelementptr inbounds [3000 x i8], [3000 x i8]* %1, i64 0, i64 %27
  %29 = load i8, i8* %28, align 1, !tbaa !5
  %30 = icmp eq i8 %29, 32
  br i1 %30, label %35, label %31

31:                                               ; preds = %26
  %32 = sext i32 %16 to i64
  %33 = sext i32 %15 to i64
  %34 = getelementptr inbounds [300 x [30 x i8]], [300 x [30 x i8]]* %2, i64 0, i64 %32, i64 %33
  store i8 0, i8* %34, align 1, !tbaa !5
  br label %35

35:                                               ; preds = %31, %26
  %36 = phi i32 [ 0, %31 ], [ %15, %26 ]
  %37 = add nuw nsw i64 %14, 1
  %38 = getelementptr inbounds [3000 x i8], [3000 x i8]* %1, i64 0, i64 %37
  %39 = load i8, i8* %38, align 1, !tbaa !5
  %40 = icmp ne i8 %39, 32
  %41 = zext i1 %40 to i32
  %42 = add nsw i32 %16, %41
  br label %43

43:                                               ; preds = %35, %20
  %44 = phi i64 [ %37, %35 ], [ %25, %20 ]
  %45 = phi i32 [ %42, %35 ], [ %16, %20 ]
  %46 = phi i32 [ %36, %35 ], [ %24, %20 ]
  %47 = icmp eq i64 %44, %12
  br i1 %47, label %48, label %13, !llvm.loop !8

48:                                               ; preds = %43
  %49 = sext i32 %45 to i64
  %50 = sext i32 %46 to i64
  %51 = getelementptr inbounds [300 x [30 x i8]], [300 x [30 x i8]]* %2, i64 0, i64 %49, i64 %50
  store i8 0, i8* %51, align 1, !tbaa !5
  %52 = icmp sgt i32 %45, 0
  br i1 %52, label %53, label %63

53:                                               ; preds = %48
  %54 = zext i32 %45 to i64
  br label %55

55:                                               ; preds = %53, %55
  %56 = phi i64 [ 0, %53 ], [ %61, %55 ]
  %57 = getelementptr inbounds [300 x [30 x i8]], [300 x [30 x i8]]* %2, i64 0, i64 %56, i64 0
  %58 = call i64 @strlen(i8* noundef nonnull %57) #6
  %59 = trunc i64 %58 to i32
  %60 = call i32 (i8*, ...) @printf(i8* nonnull dereferenceable(1) getelementptr inbounds ([4 x i8], [4 x i8]* @.str, i64 0, i64 0), i32 %59)
  %61 = add nuw nsw i64 %56, 1
  %62 = icmp eq i64 %61, %54
  br i1 %62, label %63, label %55, !llvm.loop !10

63:                                               ; preds = %55, %9, %48
  %64 = phi i64 [ 0, %9 ], [ %49, %48 ], [ %49, %55 ]
  %65 = getelementptr inbounds [300 x [30 x i8]], [300 x [30 x i8]]* %2, i64 0, i64 %64, i64 0
  %66 = call i64 @strlen(i8* noundef nonnull %65) #6
  %67 = trunc i64 %66 to i32
  %68 = call i32 (i8*, ...) @printf(i8* nonnull dereferenceable(1) getelementptr inbounds ([3 x i8], [3 x i8]* @.str.1, i64 0, i64 0), i32 %67)
  call void @llvm.lifetime.end.p0i8(i64 9000, i8* nonnull %4) #5
  call void @llvm.lifetime.end.p0i8(i64 3000, i8* nonnull %3) #5
  ret i32 0
}

; Function Attrs: argmemonly mustprogress nofree nosync nounwind willreturn
declare void @llvm.lifetime.start.p0i8(i64 immarg, i8* nocapture) #1

declare i32 @gets(...) local_unnamed_addr #2

; Function Attrs: argmemonly mustprogress nofree nounwind readonly willreturn
declare i64 @strlen(i8* nocapture) local_unnamed_addr #3

; Function Attrs: nofree nounwind
declare noundef i32 @printf(i8* nocapture noundef readonly, ...) local_unnamed_addr #4

; Function Attrs: argmemonly mustprogress nofree nosync nounwind willreturn
declare void @llvm.lifetime.end.p0i8(i64 immarg, i8* nocapture) #1


!llvm.module.flags = !{!0, !1, !2, !3}
!llvm.ident = !{!4}

!0 = !{i32 1, !"wchar_size", i32 4}
!1 = !{i32 7, !"PIC Level", i32 2}
!2 = !{i32 7, !"PIE Level", i32 2}
!3 = !{i32 7, !"uwtable", i32 1}
!4 = !{!"clang version 13.0.0"}
!5 = !{!6, !6, i64 0}
!6 = !{!"omnipotent char", !7, i64 0}
!7 = !{!"Simple C/C++ TBAA"}
!8 = distinct !{!8, !9}
!9 = !{!"llvm.loop.mustprogress"}
!10 = distinct !{!10, !9}
